; Function Attrs: mustprogress uwtable
define internal noundef i32 @_ZN17grpc_event_engine12experimental12_GLOBAL__N_113EndpointGetFdEP13grpc_endpoint(ptr noundef readonly captures(none) %0) #3 personality ptr @__gxx_personality_v0 {
  %2 = getelementptr inbounds nuw i8, ptr %0, i64 8
  %3 = load ptr, ptr %2, align 8, !tbaa !61
  %4 = getelementptr inbounds nuw i8, ptr %3, i64 64
  tail call void @_ZN4absl12lts_202407225Mutex4LockEv(ptr noundef nonnull align 8 dereferenceable(8) %4)
  %5 = getelementptr inbounds nuw i8, ptr %3, i64 160
  %6 = load i32, ptr %5, align 16, !tbaa !35
  invoke void @_ZN4absl12lts_202407225Mutex6UnlockEv(ptr noundef nonnull align 8 dereferenceable(8) %4)
          to label %_ZN17grpc_event_engine12experimental12_GLOBAL__N_126EventEngineEndpointWrapper2FdEv.exit unwind label %7

7:                                                ; preds = %1
  %8 = landingpad { ptr, i32 }
          catch ptr null
  %9 = extractvalue { ptr, i32 } %8, 0
  tail call void @__clang_call_terminate(ptr %9) #29
  unreachable

_ZN17grpc_event_engine12experimental12_GLOBAL__N_126EventEngineEndpointWrapper2FdEv.exit: ; preds = %1
  ret i32 %6
}